target datalayout = "e-m:e-p270:32:32-p271:32:32-p272:64:64-i64:64-f80:128-n8:16:32:64-S128"
target triple = "x86_64-pc-linux-gnu"

@.str = private unnamed_addr constant [3 x i8] c"%d\00", align 1
@.str.1 = private unnamed_addr constant [3 x i8] c"%s\00", align 1
@.str.2 = private unnamed_addr constant [3 x i8] c"%c\00", align 1
@.str.3 = private unnamed_addr constant [2 x i8] c"\0A\00", align 1

; Function Attrs: noinline nounwind uwtable
define dso_local i32 @main() #0 {
  %1 = alloca i32, align 4
  %2 = alloca i32, align 4
  %3 = alloca i32, align 4
  %4 = alloca i32, align 4
  %5 = alloca i32, align 4
  %6 = alloca i32, align 4
  %7 = alloca i32, align 4
  %8 = alloca [101 x i8], align 16
  %9 = alloca [101 x i8], align 16
  %10 = alloca [101 x i8], align 16
  %11 = alloca [101 x i8], align 16
  %12 = alloca [101 x i8], align 16
  store i32 0, i32* %1, align 4
  %13 = call i32 (i8*, ...) @__isoc99_scanf(i8* getelementptr inbounds ([3 x i8], [3 x i8]* @.str, i64 0, i64 0), i32* %3)
  store i32 1, i32* %2, align 4
  br label %14

14:                                               ; preds = %164, %0
  %15 = load i32, i32* %2, align 4
  %16 = load i32, i32* %3, align 4
  %17 = icmp sle i32 %15, %16
  br i1 %17, label %18, label %167

18:                                               ; preds = %14
  %19 = getelementptr inbounds [101 x i8], [101 x i8]* %8, i64 0, i64 0
  %20 = call i32 (i8*, ...) @__isoc99_scanf(i8* getelementptr inbounds ([3 x i8], [3 x i8]* @.str.1, i64 0, i64 0), i8* %19)
  %21 = getelementptr inbounds [101 x i8], [101 x i8]* %9, i64 0, i64 0
  %22 = call i32 (i8*, ...) @__isoc99_scanf(i8* getelementptr inbounds ([3 x i8], [3 x i8]* @.str.1, i64 0, i64 0), i8* %21)
  %23 = getelementptr inbounds [101 x i8], [101 x i8]* %8, i64 0, i64 0
  %24 = call i64 @strlen(i8* %23) #3
  %25 = trunc i64 %24 to i32
  store i32 %25, i32* %5, align 4
  %26 = getelementptr inbounds [101 x i8], [101 x i8]* %9, i64 0, i64 0
  %27 = call i64 @strlen(i8* %26) #3
  %28 = trunc i64 %27 to i32
  store i32 %28, i32* %6, align 4
  %29 = load i32, i32* %5, align 4
  %30 = sub nsw i32 %29, 1
  store i32 %30, i32* %4, align 4
  store i32 0, i32* %7, align 4
  br label %31

31:                                               ; preds = %42, %18
  %32 = load i32, i32* %4, align 4
  %33 = icmp sge i32 %32, 0
  br i1 %33, label %34, label %47

34:                                               ; preds = %31
  %35 = load i32, i32* %4, align 4
  %36 = sext i32 %35 to i64
  %37 = getelementptr inbounds [101 x i8], [101 x i8]* %8, i64 0, i64 %36
  %38 = load i8, i8* %37, align 1
  %39 = load i32, i32* %7, align 4
  %40 = sext i32 %39 to i64
  %41 = getelementptr inbounds [101 x i8], [101 x i8]* %10, i64 0, i64 %40
  store i8 %38, i8* %41, align 1
  br label %42

42:                                               ; preds = %34
  %43 = load i32, i32* %4, align 4
  %44 = add nsw i32 %43, -1
  store i32 %44, i32* %4, align 4
  %45 = load i32, i32* %7, align 4
  %46 = add nsw i32 %45, 1
  store i32 %46, i32* %7, align 4
  br label %31

47:                                               ; preds = %31
  %48 = load i32, i32* %6, align 4
  %49 = sub nsw i32 %48, 1
  store i32 %49, i32* %4, align 4
  store i32 0, i32* %7, align 4
  br label %50

50:                                               ; preds = %61, %47
  %51 = load i32, i32* %4, align 4
  %52 = icmp sge i32 %51, 0
  br i1 %52, label %53, label %66

53:                                               ; preds = %50
  %54 = load i32, i32* %4, align 4
  %55 = sext i32 %54 to i64
  %56 = getelementptr inbounds [101 x i8], [101 x i8]* %9, i64 0, i64 %55
  %57 = load i8, i8* %56, align 1
  %58 = load i32, i32* %7, align 4
  %59 = sext i32 %58 to i64
  %60 = getelementptr inbounds [101 x i8], [101 x i8]* %11, i64 0, i64 %59
  store i8 %57, i8* %60, align 1
  br label %61

61:                                               ; preds = %53
  %62 = load i32, i32* %7, align 4
  %63 = add nsw i32 %62, 1
  store i32 %63, i32* %7, align 4
  %64 = load i32, i32* %4, align 4
  %65 = add nsw i32 %64, -1
  store i32 %65, i32* %4, align 4
  br label %50

66:                                               ; preds = %50
  store i32 0, i32* %4, align 4
  br label %67

67:                                               ; preds = %143, %66
  %68 = load i32, i32* %4, align 4
  %69 = load i32, i32* %5, align 4
  %70 = icmp slt i32 %68, %69
  br i1 %70, label %71, label %146

71:                                               ; preds = %67
  %72 = load i32, i32* %4, align 4
  %73 = load i32, i32* %6, align 4
  %74 = icmp slt i32 %72, %73
  br i1 %74, label %75, label %134

75:                                               ; preds = %71
  %76 = load i32, i32* %4, align 4
  %77 = sext i32 %76 to i64
  %78 = getelementptr inbounds [101 x i8], [101 x i8]* %10, i64 0, i64 %77
  %79 = load i8, i8* %78, align 1
  %80 = sext i8 %79 to i32
  %81 = load i32, i32* %4, align 4
  %82 = sext i32 %81 to i64
  %83 = getelementptr inbounds [101 x i8], [101 x i8]* %11, i64 0, i64 %82
  %84 = load i8, i8* %83, align 1
  %85 = sext i8 %84 to i32
  %86 = icmp slt i32 %80, %85
  br i1 %86, label %87, label %116

87:                                               ; preds = %75
  %88 = load i32, i32* %4, align 4
  %89 = sext i32 %88 to i64
  %90 = getelementptr inbounds [101 x i8], [101 x i8]* %10, i64 0, i64 %89
  %91 = load i8, i8* %90, align 1
  %92 = sext i8 %91 to i32
  %93 = add nsw i32 %92, 58
  %94 = load i32, i32* %4, align 4
  %95 = sext i32 %94 to i64
  %96 = getelementptr inbounds [101 x i8], [101 x i8]* %11, i64 0, i64 %95
  %97 = load i8, i8* %96, align 1
  %98 = sext i8 %97 to i32
  %99 = sub nsw i32 %93, %98
  %100 = trunc i32 %99 to i8
  %101 = load i32, i32* %4, align 4
  %102 = sext i32 %101 to i64
  %103 = getelementptr inbounds [101 x i8], [101 x i8]* %12, i64 0, i64 %102
  store i8 %100, i8* %103, align 1
  %104 = load i32, i32* %4, align 4
  %105 = add nsw i32 %104, 1
  %106 = sext i32 %105 to i64
  %107 = getelementptr inbounds [101 x i8], [101 x i8]* %10, i64 0, i64 %106
  %108 = load i8, i8* %107, align 1
  %109 = sext i8 %108 to i32
  %110 = sub nsw i32 %109, 1
  %111 = trunc i32 %110 to i8
  %112 = load i32, i32* %4, align 4
  %113 = add nsw i32 %112, 1
  %114 = sext i32 %113 to i64
  %115 = getelementptr inbounds [101 x i8], [101 x i8]* %10, i64 0, i64 %114
  store i8 %111, i8* %115, align 1
  br label %133

116:                                              ; preds = %75
  %117 = load i32, i32* %4, align 4
  %118 = sext i32 %117 to i64
  %119 = getelementptr inbounds [101 x i8], [101 x i8]* %10, i64 0, i64 %118
  %120 = load i8, i8* %119, align 1
  %121 = sext i8 %120 to i32
  %122 = load i32, i32* %4, align 4
  %123 = sext i32 %122 to i64
  %124 = getelementptr inbounds [101 x i8], [101 x i8]* %11, i64 0, i64 %123
  %125 = load i8, i8* %124, align 1
  %126 = sext i8 %125 to i32
  %127 = sub nsw i32 %121, %126
  %128 = add nsw i32 %127, 48
  %129 = trunc i32 %128 to i8
  %130 = load i32, i32* %4, align 4
  %131 = sext i32 %130 to i64
  %132 = getelementptr inbounds [101 x i8], [101 x i8]* %12, i64 0, i64 %131
  store i8 %129, i8* %132, align 1
  br label %133

133:                                              ; preds = %116, %87
  br label %142

134:                                              ; preds = %71
  %135 = load i32, i32* %4, align 4
  %136 = sext i32 %135 to i64
  %137 = getelementptr inbounds [101 x i8], [101 x i8]* %10, i64 0, i64 %136
  %138 = load i8, i8* %137, align 1
  %139 = load i32, i32* %4, align 4
  %140 = sext i32 %139 to i64
  %141 = getelementptr inbounds [101 x i8], [101 x i8]* %12, i64 0, i64 %140
  store i8 %138, i8* %141, align 1
  br label %142

142:                                              ; preds = %134, %133
  br label %143

143:                                              ; preds = %142
  %144 = load i32, i32* %4, align 4
  %145 = add nsw i32 %144, 1
  store i32 %145, i32* %4, align 4
  br label %67

146:                                              ; preds = %67
  %147 = load i32, i32* %5, align 4
  %148 = sub nsw i32 %147, 1
  store i32 %148, i32* %4, align 4
  br label %149

149:                                              ; preds = %159, %146
  %150 = load i32, i32* %4, align 4
  %151 = icmp sge i32 %150, 0
  br i1 %151, label %152, label %162

152:                                              ; preds = %149
  %153 = load i32, i32* %4, align 4
  %154 = sext i32 %153 to i64
  %155 = getelementptr inbounds [101 x i8], [101 x i8]* %12, i64 0, i64 %154
  %156 = load i8, i8* %155, align 1
  %157 = sext i8 %156 to i32
  %158 = call i32 (i8*, ...) @printf(i8* getelementptr inbounds ([3 x i8], [3 x i8]* @.str.2, i64 0, i64 0), i32 %157)
  br label %159

159:                                              ; preds = %152
  %160 = load i32, i32* %4, align 4
  %161 = add nsw i32 %160, -1
  store i32 %161, i32* %4, align 4
  br label %149

162:                                              ; preds = %149
  %163 = call i32 (i8*, ...) @printf(i8* getelementptr inbounds ([2 x i8], [2 x i8]* @.str.3, i64 0, i64 0))
  br label %164

164:                                              ; preds = %162
  %165 = load i32, i32* %2, align 4
  %166 = add nsw i32 %165, 1
  store i32 %166, i32* %2, align 4
  br label %14

167:                                              ; preds = %14
  ret i32 0
}